target datalayout = "e-m:e-p270:32:32-p271:32:32-p272:64:64-i64:64-i128:128-f80:128-n8:16:32:64-S128"
target triple = "x86_64-pc-linux-gnu"

; Function Attrs: mustprogress nounwind uwtable
define noundef i64 @_ZN2cv15getCPUTickCountEv() #5 {
  %1 = alloca i32, align 4
  %2 = alloca i32, align 4
  call void @llvm.lifetime.start.p0(i64 4, ptr %1) #3
  call void @llvm.lifetime.start.p0(i64 4, ptr %2) #3
  %3 = call { i32, i32 } asm sideeffect "rdtsc", "={ax},={dx},~{dirflag},~{fpsr},~{flags}"() #3, !srcloc !69
  %4 = extractvalue { i32, i32 } %3, 0
  %5 = extractvalue { i32, i32 } %3, 1
  store i32 %4, ptr %2, align 4, !tbaa !29
  store i32 %5, ptr %1, align 4, !tbaa !29
  %6 = load i32, ptr %2, align 4, !tbaa !29
  %7 = zext i32 %6 to i64
  %8 = load i32, ptr %1, align 4, !tbaa !29
  %9 = zext i32 %8 to i64
  %10 = shl i64 %9, 32
  %11 = or i64 %7, %10
  call void @llvm.lifetime.end.p0(i64 4, ptr %2) #3
  call void @llvm.lifetime.end.p0(i64 4, ptr %1) #3
  ret i64 %11
}