; Function Attrs: mustprogress nounwind uwtable
define noundef i64 @_ZN2cv15getCPUTickCountEv() local_unnamed_addr #9 {
  %1 = tail call { i32, i32 } asm sideeffect "rdtsc", "={ax},={dx},~{dirflag},~{fpsr},~{flags}"() #34, !srcloc !94
  %2 = extractvalue { i32, i32 } %1, 0
  %3 = extractvalue { i32, i32 } %1, 1
  %4 = zext i32 %2 to i64
  %5 = zext i32 %3 to i64
  %6 = shl nuw i64 %5, 32
  %7 = or disjoint i64 %6, %4
  ret i64 %7
}